target datalayout = "e-m:e-p270:32:32-p271:32:32-p272:64:64-i64:64-i128:128-f80:128-n8:16:32:64-S128"
target triple = "x86_64-pc-linux-gnu"

%struct.GetBitContext = type { ptr, ptr, i32, i32, i32 }

; Function Attrs: inlinehint nounwind uwtable
define internal i32 @get_bits1(ptr noundef %0) #4 {
  %2 = alloca ptr, align 8
  %3 = alloca i32, align 4
  %4 = alloca i8, align 1
  store ptr %0, ptr %2, align 8, !tbaa !136
  call void @llvm.lifetime.start.p0(i64 4, ptr %3) #11
  %5 = load ptr, ptr %2, align 8, !tbaa !136
  %6 = getelementptr inbounds nuw %struct.GetBitContext, ptr %5, i32 0, i32 2
  %7 = load i32, ptr %6, align 8, !tbaa !180
  store i32 %7, ptr %3, align 4, !tbaa !51
  call void @llvm.lifetime.start.p0(i64 1, ptr %4) #11
  %8 = load ptr, ptr %2, align 8, !tbaa !136
  %9 = getelementptr inbounds nuw %struct.GetBitContext, ptr %8, i32 0, i32 0
  %10 = load ptr, ptr %9, align 8, !tbaa !177
  %11 = load i32, ptr %3, align 4, !tbaa !51
  %12 = lshr i32 %11, 3
  %13 = zext i32 %12 to i64
  %14 = getelementptr inbounds nuw i8, ptr %10, i64 %13
  %15 = load i8, ptr %14, align 1, !tbaa !53
  store i8 %15, ptr %4, align 1, !tbaa !53
  %16 = load i32, ptr %3, align 4, !tbaa !51
  %17 = and i32 %16, 7
  %18 = load i8, ptr %4, align 1, !tbaa !53
  %19 = zext i8 %18 to i32
  %20 = ashr i32 %19, %17
  %21 = trunc i32 %20 to i8
  store i8 %21, ptr %4, align 1, !tbaa !53
  %22 = load i8, ptr %4, align 1, !tbaa !53
  %23 = zext i8 %22 to i32
  %24 = and i32 %23, 1
  %25 = trunc i32 %24 to i8
  store i8 %25, ptr %4, align 1, !tbaa !53
  %26 = load ptr, ptr %2, align 8, !tbaa !136
  %27 = getelementptr inbounds nuw %struct.GetBitContext, ptr %26, i32 0, i32 2
  %28 = load i32, ptr %27, align 8, !tbaa !180
  %29 = load ptr, ptr %2, align 8, !tbaa !136
  %30 = getelementptr inbounds nuw %struct.GetBitContext, ptr %29, i32 0, i32 4
  %31 = load i32, ptr %30, align 8, !tbaa !178
  %32 = icmp slt i32 %28, %31
  br i1 %32, label %33, label %36

33:                                               ; preds = %1
  %34 = load i32, ptr %3, align 4, !tbaa !51
  %35 = add i32 %34, 1
  store i32 %35, ptr %3, align 4, !tbaa !51
  br label %36

36:                                               ; preds = %33, %1
  %37 = load i32, ptr %3, align 4, !tbaa !51
  %38 = load ptr, ptr %2, align 8, !tbaa !136
  %39 = getelementptr inbounds nuw %struct.GetBitContext, ptr %38, i32 0, i32 2
  store i32 %37, ptr %39, align 8, !tbaa !180
  %40 = load i8, ptr %4, align 1, !tbaa !53
  %41 = zext i8 %40 to i32
  call void @llvm.lifetime.end.p0(i64 1, ptr %4) #11
  call void @llvm.lifetime.end.p0(i64 4, ptr %3) #11
  ret i32 %41
}

; Function Attrs: inlinehint nounwind uwtable
define internal i32 @get_unary(ptr noundef %0, i32 noundef %1, i32 noundef %2) #4 {
  %4 = alloca ptr, align 8
  %5 = alloca i32, align 4
  %6 = alloca i32, align 4
  %7 = alloca i32, align 4
  store ptr %0, ptr %4, align 8, !tbaa !136
  store i32 %1, ptr %5, align 4, !tbaa !51
  store i32 %2, ptr %6, align 4, !tbaa !51
  call void @llvm.lifetime.start.p0(i64 4, ptr %7) #11
  store i32 0, ptr %7, align 4, !tbaa !51
  br label %8

8:                                                ; preds = %20, %3
  %9 = load i32, ptr %7, align 4, !tbaa !51
  %10 = load i32, ptr %6, align 4, !tbaa !51
  %11 = icmp slt i32 %9, %10
  br i1 %11, label %12, label %17

12:                                               ; preds = %8
  %13 = load ptr, ptr %4, align 8, !tbaa !136
  %14 = call i32 @get_bits1(ptr noundef %13)
  %15 = load i32, ptr %5, align 4, !tbaa !51
  %16 = icmp ne i32 %14, %15
  br label %17

17:                                               ; preds = %12, %8
  %18 = phi i1 [ false, %8 ], [ %16, %12 ]
  br i1 %18, label %19, label %23

19:                                               ; preds = %17
  br label %20

20:                                               ; preds = %19
  %21 = load i32, ptr %7, align 4, !tbaa !51
  %22 = add nsw i32 %21, 1
  store i32 %22, ptr %7, align 4, !tbaa !51
  br label %8, !llvm.loop !190

23:                                               ; preds = %17
  %24 = load i32, ptr %7, align 4, !tbaa !51
  call void @llvm.lifetime.end.p0(i64 4, ptr %7) #11
  ret i32 %24
}

; Function Attrs: inlinehint nounwind uwtable
define internal i32 @get_unary_0_33(ptr noundef %0) #4 {
  %2 = alloca ptr, align 8
  store ptr %0, ptr %2, align 8, !tbaa !136
  %3 = load ptr, ptr %2, align 8, !tbaa !136
  %4 = call i32 @get_unary(ptr noundef %3, i32 noundef 0, i32 noundef 33)
  ret i32 %4
}