; Function Attrs: inlinehint nofree norecurse nosync nounwind memory(read, argmem: readwrite, inaccessiblemem: none) uwtable
define internal fastcc i32 @get_unary_0_33(ptr noundef captures(none) %0) unnamed_addr #10 {
  %2 = getelementptr inbounds nuw i8, ptr %0, i64 16
  %3 = load ptr, ptr %0, align 8, !tbaa !95
  %4 = getelementptr inbounds nuw i8, ptr %0, i64 24
  %5 = load i32, ptr %4, align 8, !tbaa !97
  %.promoted.i = load i32, ptr %2, align 8, !tbaa !99
  br label %6

6:                                                ; preds = %17, %1
  %spec.select.i6.i = phi i32 [ %.promoted.i, %1 ], [ %spec.select.i.i, %17 ]
  %.05.i = phi i32 [ 0, %1 ], [ %18, %17 ]
  %7 = lshr i32 %spec.select.i6.i, 3
  %8 = zext nneg i32 %7 to i64
  %9 = getelementptr inbounds nuw i8, ptr %3, i64 %8
  %10 = load i8, ptr %9, align 1, !tbaa !43
  %11 = icmp slt i32 %spec.select.i6.i, %5
  %12 = zext i1 %11 to i32
  %spec.select.i.i = add i32 %spec.select.i6.i, %12
  %13 = zext i8 %10 to i32
  %14 = and i32 %spec.select.i6.i, 7
  store i32 %spec.select.i.i, ptr %2, align 8, !tbaa !99
  %15 = shl nuw nsw i32 1, %14
  %16 = and i32 %15, %13
  %.not.i = icmp eq i32 %16, 0
  br i1 %.not.i, label %get_unary.exit, label %17

17:                                               ; preds = %6
  %18 = add nuw nsw i32 %.05.i, 1
  %exitcond.not.i = icmp eq i32 %18, 33
  br i1 %exitcond.not.i, label %get_unary.exit, label %6, !llvm.loop !159

get_unary.exit:                                   ; preds = %6, %17
  %.0.lcssa.i = phi i32 [ 33, %17 ], [ %.05.i, %6 ]
  ret i32 %.0.lcssa.i
}